target datalayout = "e-m:e-p270:32:32-p271:32:32-p272:64:64-i64:64-i128:128-f80:128-n8:16:32:64-S128"
target triple = "x86_64-pc-linux-gnu"

%struct.QTailQLink = type { ptr, ptr }
%struct.QemuMutex = type { %union.pthread_mutex_t, i8 }
%union.pthread_mutex_t = type { %struct.__pthread_mutex_s }
%struct.__pthread_mutex_s = type { i32, i32, i32, i32, i32, i16, i16, %struct.__pthread_internal_list }
%struct.__pthread_internal_list = type { ptr, ptr }
%struct.BlockDriverState = type { i32, i8, i8, i8, i8, i8, ptr, ptr, ptr, %struct.anon, i8, [4096 x i8], [4096 x i8], [4096 x i8], [16 x i8], ptr, [4096 x i8], %struct.BlockLimits, i32, i32, i32, i32, [32 x i8], %union.anon.0, %union.anon.1, %union.anon.2, i32, [15 x %struct.anon.3], ptr, %struct.anon.4, ptr, ptr, %struct.anon.5, ptr, ptr, i32, ptr, i64, i64, %struct.QemuMutex, %struct.anon.6, %struct.Stat64, i32, i32, i32, i32, i32, i32, %struct.QemuMutex, %struct.anon.7, %struct.CoQueue, i8, i32, i8, %struct.CoMutex, ptr, ptr }
%struct.anon = type { ptr }
%struct.BlockLimits = type { i32, i64, i32, i64, i32, i32, i32, i64, i32, i64, i64, i32, i8, i32, i32, i32, i32, i32, i32, i32 }
%union.anon.0 = type { %struct.QTailQLink }
%union.anon.1 = type { %struct.QTailQLink }
%union.anon.2 = type { %struct.QTailQLink }
%struct.anon.3 = type { ptr }
%struct.anon.4 = type { ptr }
%struct.anon.5 = type { ptr }
%struct.anon.6 = type { ptr }
%struct.Stat64 = type { i64 }
%struct.anon.7 = type { ptr }
%struct.CoQueue = type { %struct.anon.8 }
%struct.anon.8 = type { ptr, ptr }
%struct.CoMutex = type { i32, ptr, %struct.anon.9, %struct.anon.9, i32, i32, ptr }
%struct.anon.9 = type { ptr }
%struct.GraphLockableMainloop = type {}

@.str = private unnamed_addr constant [22 x i8] c"qemu_in_main_thread()\00", align 1
@.str.1 = private unnamed_addr constant [19 x i8] c"../qemu/blockdev.c\00", align 1
@.str.87 = private unnamed_addr constant [26 x i8] c"Parameter '%s' expects %s\00", align 1
@__func__.blockdev_mirror_common = private unnamed_addr constant [23 x i8] c"blockdev_mirror_common\00", align 1
@.str.241 = private unnamed_addr constant [12 x i8] c"granularity\00", align 1
@.str.242 = private unnamed_addr constant [30 x i8] c"a value in range [512B, 64MB]\00", align 1
@.str.243 = private unnamed_addr constant [13 x i8] c"a power of 2\00", align 1
@.str.244 = private unnamed_addr constant [30 x i8] c"Failed to query device's size\00", align 1
@.str.245 = private unnamed_addr constant [44 x i8] c"Failed to query the replacement node's size\00", align 1
@.str.246 = private unnamed_addr constant [59 x i8] c"cannot replace image with a mirror image of different size\00", align 1

; Function Attrs: inlinehint nounwind sspstrong uwtable
define internal void @graph_lockable_auto_unlock_mainloop(ptr noundef %0) #5 {
  %2 = alloca ptr, align 8
  store ptr %0, ptr %2, align 8
  call void @bdrv_graph_rdunlock_main_loop()
  ret void
}

; Function Attrs: inlinehint nounwind sspstrong uwtable
define internal void @glib_autoptr_clear_GraphLockableMainloop(ptr noundef %0) #5 {
  %2 = alloca ptr, align 8
  store ptr %0, ptr %2, align 8
  %3 = load ptr, ptr %2, align 8
  %4 = icmp ne ptr %3, null
  br i1 %4, label %5, label %7

5:                                                ; preds = %1
  %6 = load ptr, ptr %2, align 8
  call void @graph_lockable_auto_unlock_mainloop(ptr noundef %6)
  br label %7

7:                                                ; preds = %5, %1
  ret void
}

; Function Attrs: inlinehint nounwind sspstrong uwtable
define internal void @glib_autoptr_cleanup_GraphLockableMainloop(ptr noundef %0) #5 {
  %2 = alloca ptr, align 8
  store ptr %0, ptr %2, align 8
  %3 = load ptr, ptr %2, align 8
  %4 = load ptr, ptr %3, align 8
  call void @glib_autoptr_clear_GraphLockableMainloop(ptr noundef %4)
  ret void
}

; Function Attrs: inlinehint nounwind sspstrong uwtable
define internal ptr @graph_lockable_auto_lock_mainloop(ptr noundef %0) #5 {
  %2 = alloca ptr, align 8
  store ptr %0, ptr %2, align 8
  call void @bdrv_graph_rdlock_main_loop()
  %3 = load ptr, ptr %2, align 8
  ret ptr %3
}

; Function Attrs: nounwind sspstrong uwtable
define internal void @blockdev_mirror_common(ptr noundef %0, ptr noundef %1, ptr noundef %2, ptr noundef %3, i32 noundef %4, i32 noundef %5, i1 noundef zeroext %6, i1 noundef zeroext %7, i64 noundef %8, i1 noundef zeroext %9, i32 noundef %10, i1 noundef zeroext %11, i64 noundef %12, i1 noundef zeroext %13, i32 noundef %14, i1 noundef zeroext %15, i32 noundef %16, i1 noundef zeroext %17, i1 noundef zeroext %18, ptr noundef %19, i1 noundef zeroext %20, i32 noundef %21, i1 noundef zeroext %22, i1 noundef zeroext %23, i1 noundef zeroext %24, i1 noundef zeroext %25, ptr noundef %26) #0 {
  %28 = alloca ptr, align 8
  %29 = alloca ptr, align 8
  %30 = alloca ptr, align 8
  %31 = alloca ptr, align 8
  %32 = alloca i32, align 4
  %33 = alloca i32, align 4
  %34 = alloca i8, align 1
  %35 = alloca i8, align 1
  %36 = alloca i64, align 8
  %37 = alloca i8, align 1
  %38 = alloca i32, align 4
  %39 = alloca i8, align 1
  %40 = alloca i64, align 8
  %41 = alloca i8, align 1
  %42 = alloca i32, align 4
  %43 = alloca i8, align 1
  %44 = alloca i32, align 4
  %45 = alloca i8, align 1
  %46 = alloca i8, align 1
  %47 = alloca ptr, align 8
  %48 = alloca i8, align 1
  %49 = alloca i32, align 4
  %50 = alloca i8, align 1
  %51 = alloca i8, align 1
  %52 = alloca i8, align 1
  %53 = alloca i8, align 1
  %54 = alloca ptr, align 8
  %55 = alloca ptr, align 8
  %56 = alloca i32, align 4
  %57 = alloca ptr, align 8
  %58 = alloca %struct.GraphLockableMainloop, align 1
  %59 = alloca i32, align 4
  %60 = alloca ptr, align 8
  %61 = alloca i64, align 8
  %62 = alloca i64, align 8
  store ptr %0, ptr %28, align 8
  store ptr %1, ptr %29, align 8
  store ptr %2, ptr %30, align 8
  store ptr %3, ptr %31, align 8
  store i32 %4, ptr %32, align 4
  store i32 %5, ptr %33, align 4
  %63 = zext i1 %6 to i8
  store i8 %63, ptr %34, align 1
  %64 = zext i1 %7 to i8
  store i8 %64, ptr %35, align 1
  store i64 %8, ptr %36, align 8
  %65 = zext i1 %9 to i8
  store i8 %65, ptr %37, align 1
  store i32 %10, ptr %38, align 4
  %66 = zext i1 %11 to i8
  store i8 %66, ptr %39, align 1
  store i64 %12, ptr %40, align 8
  %67 = zext i1 %13 to i8
  store i8 %67, ptr %41, align 1
  store i32 %14, ptr %42, align 4
  %68 = zext i1 %15 to i8
  store i8 %68, ptr %43, align 1
  store i32 %16, ptr %44, align 4
  %69 = zext i1 %17 to i8
  store i8 %69, ptr %45, align 1
  %70 = zext i1 %18 to i8
  store i8 %70, ptr %46, align 1
  store ptr %19, ptr %47, align 8
  %71 = zext i1 %20 to i8
  store i8 %71, ptr %48, align 1
  store i32 %21, ptr %49, align 4
  %72 = zext i1 %22 to i8
  store i8 %72, ptr %50, align 1
  %73 = zext i1 %23 to i8
  store i8 %73, ptr %51, align 1
  %74 = zext i1 %24 to i8
  store i8 %74, ptr %52, align 1
  %75 = zext i1 %25 to i8
  store i8 %75, ptr %53, align 1
  store ptr %26, ptr %54, align 8
  call void @llvm.lifetime.start.p0(i64 8, ptr %55) #16
  store ptr null, ptr %55, align 8, !annotation !4
  call void @llvm.lifetime.start.p0(i64 4, ptr %56) #16
  store i32 0, ptr %56, align 4
  br label %76

76:                                               ; preds = %27
  %77 = call zeroext i1 @qemu_in_main_thread()
  br i1 %77, label %78, label %79

78:                                               ; preds = %76
  br label %80

79:                                               ; preds = %76
  call void @__assert_fail(ptr noundef @.str, ptr noundef @.str.1, i32 noundef 2819, ptr noundef @__PRETTY_FUNCTION__.blockdev_mirror_common) #15
  unreachable

80:                                               ; preds = %78
  br label %81

81:                                               ; preds = %80
  br label %82

82:                                               ; preds = %81
  call void @llvm.lifetime.start.p0(i64 8, ptr %57) #16
  %83 = call ptr @graph_lockable_auto_lock_mainloop(ptr noundef %58)
  store ptr %83, ptr %57, align 8
  %84 = load i8, ptr %35, align 1, !range !7, !noundef !8
  %85 = trunc i8 %84 to i1
  br i1 %85, label %87, label %86

86:                                               ; preds = %82
  store i64 0, ptr %36, align 8
  br label %87

87:                                               ; preds = %86, %82
  %88 = load i8, ptr %41, align 1, !range !7, !noundef !8
  %89 = trunc i8 %88 to i1
  br i1 %89, label %91, label %90

90:                                               ; preds = %87
  store i32 0, ptr %42, align 4
  br label %91

91:                                               ; preds = %90, %87
  %92 = load i8, ptr %43, align 1, !range !7, !noundef !8
  %93 = trunc i8 %92 to i1
  br i1 %93, label %95, label %94

94:                                               ; preds = %91
  store i32 0, ptr %44, align 4
  br label %95

95:                                               ; preds = %94, %91
  %96 = load i8, ptr %37, align 1, !range !7, !noundef !8
  %97 = trunc i8 %96 to i1
  br i1 %97, label %99, label %98

98:                                               ; preds = %95
  store i32 0, ptr %38, align 4
  br label %99

99:                                               ; preds = %98, %95
  %100 = load i8, ptr %39, align 1, !range !7, !noundef !8
  %101 = trunc i8 %100 to i1
  br i1 %101, label %103, label %102

102:                                              ; preds = %99
  store i64 0, ptr %40, align 8
  br label %103

103:                                              ; preds = %102, %99
  %104 = load i8, ptr %45, align 1, !range !7, !noundef !8
  %105 = trunc i8 %104 to i1
  br i1 %105, label %107, label %106

106:                                              ; preds = %103
  store i8 1, ptr %46, align 1
  br label %107

107:                                              ; preds = %106, %103
  %108 = load i8, ptr %48, align 1, !range !7, !noundef !8
  %109 = trunc i8 %108 to i1
  br i1 %109, label %111, label %110

110:                                              ; preds = %107
  store i32 0, ptr %49, align 4
  br label %111

111:                                              ; preds = %110, %107
  %112 = load i8, ptr %50, align 1, !range !7, !noundef !8
  %113 = trunc i8 %112 to i1
  br i1 %113, label %114, label %120

114:                                              ; preds = %111
  %115 = load i8, ptr %51, align 1, !range !7, !noundef !8
  %116 = trunc i8 %115 to i1
  br i1 %116, label %120, label %117

117:                                              ; preds = %114
  %118 = load i32, ptr %56, align 4
  %119 = or i32 %118, 2
  store i32 %119, ptr %56, align 4
  br label %120

120:                                              ; preds = %117, %114, %111
  %121 = load i8, ptr %52, align 1, !range !7, !noundef !8
  %122 = trunc i8 %121 to i1
  br i1 %122, label %123, label %129

123:                                              ; preds = %120
  %124 = load i8, ptr %53, align 1, !range !7, !noundef !8
  %125 = trunc i8 %124 to i1
  br i1 %125, label %129, label %126

126:                                              ; preds = %123
  %127 = load i32, ptr %56, align 4
  %128 = or i32 %127, 4
  store i32 %128, ptr %56, align 4
  br label %129

129:                                              ; preds = %126, %123, %120
  %130 = load i32, ptr %38, align 4
  %131 = icmp ne i32 %130, 0
  br i1 %131, label %132, label %140

132:                                              ; preds = %129
  %133 = load i32, ptr %38, align 4
  %134 = icmp ult i32 %133, 512
  br i1 %134, label %138, label %135

135:                                              ; preds = %132
  %136 = load i32, ptr %38, align 4
  %137 = icmp ugt i32 %136, 67108864
  br i1 %137, label %138, label %140

138:                                              ; preds = %135, %132
  %139 = load ptr, ptr %54, align 8
  call void (ptr, ptr, i32, ptr, ptr, ...) @error_setg_internal(ptr noundef %139, ptr noundef @.str.1, i32 noundef 2852, ptr noundef @__func__.blockdev_mirror_common, ptr noundef @.str.87, ptr noundef @.str.241, ptr noundef @.str.242)
  store i32 1, ptr %59, align 4
  br label %241

140:                                              ; preds = %135, %129
  %141 = load i32, ptr %38, align 4
  %142 = load i32, ptr %38, align 4
  %143 = sub i32 %142, 1
  %144 = and i32 %141, %143
  %145 = icmp ne i32 %144, 0
  br i1 %145, label %146, label %148

146:                                              ; preds = %140
  %147 = load ptr, ptr %54, align 8
  call void (ptr, ptr, i32, ptr, ptr, ...) @error_setg_internal(ptr noundef %147, ptr noundef @.str.1, i32 noundef 2857, ptr noundef @__func__.blockdev_mirror_common, ptr noundef @.str.87, ptr noundef @.str.241, ptr noundef @.str.243)
  store i32 1, ptr %59, align 4
  br label %241

148:                                              ; preds = %140
  %149 = load ptr, ptr %29, align 8
  %150 = load ptr, ptr %54, align 8
  %151 = call zeroext i1 @bdrv_op_is_blocked(ptr noundef %149, i32 noundef 10, ptr noundef %150)
  br i1 %151, label %152, label %153

152:                                              ; preds = %148
  store i32 1, ptr %59, align 4
  br label %241

153:                                              ; preds = %148
  %154 = load ptr, ptr %30, align 8
  %155 = load ptr, ptr %54, align 8
  %156 = call zeroext i1 @bdrv_op_is_blocked(ptr noundef %154, i32 noundef 11, ptr noundef %155)
  br i1 %156, label %157, label %158

157:                                              ; preds = %153
  store i32 1, ptr %59, align 4
  br label %241

158:                                              ; preds = %153
  %159 = load ptr, ptr %29, align 8
  %160 = call ptr @bdrv_backing_chain_next(ptr noundef %159)
  %161 = icmp ne ptr %160, null
  br i1 %161, label %166, label %162

162:                                              ; preds = %158
  %163 = load i32, ptr %32, align 4
  %164 = icmp eq i32 %163, 0
  br i1 %164, label %165, label %166

165:                                              ; preds = %162
  store i32 1, ptr %32, align 4
  br label %166

166:                                              ; preds = %165, %162, %158
  %167 = load ptr, ptr %31, align 8
  %168 = icmp ne ptr %167, null
  br i1 %168, label %180, label %169

169:                                              ; preds = %166
  %170 = load ptr, ptr %29, align 8
  %171 = call ptr @bdrv_skip_implicit_filters(ptr noundef %170)
  store ptr %171, ptr %55, align 8
  %172 = load ptr, ptr %55, align 8
  %173 = load ptr, ptr %29, align 8
  %174 = icmp ne ptr %172, %173
  br i1 %174, label %175, label %179

175:                                              ; preds = %169
  %176 = load ptr, ptr %55, align 8
  %177 = getelementptr inbounds nuw %struct.BlockDriverState, ptr %176, i32 0, i32 22
  %178 = getelementptr inbounds [32 x i8], ptr %177, i64 0, i64 0
  store ptr %178, ptr %31, align 8
  br label %179

179:                                              ; preds = %175, %169
  br label %180

180:                                              ; preds = %179, %166
  %181 = load ptr, ptr %31, align 8
  %182 = icmp ne ptr %181, null
  br i1 %182, label %183, label %221

183:                                              ; preds = %180
  call void @llvm.lifetime.start.p0(i64 8, ptr %60) #16
  store ptr null, ptr %60, align 8, !annotation !4
  call void @llvm.lifetime.start.p0(i64 8, ptr %61) #16
  store i64 0, ptr %61, align 8, !annotation !4
  call void @llvm.lifetime.start.p0(i64 8, ptr %62) #16
  store i64 0, ptr %62, align 8, !annotation !4
  %184 = load ptr, ptr %29, align 8
  %185 = call i64 @bdrv_getlength(ptr noundef %184)
  store i64 %185, ptr %61, align 8
  %186 = load i64, ptr %61, align 8
  %187 = icmp slt i64 %186, 0
  br i1 %187, label %188, label %193

188:                                              ; preds = %183
  %189 = load ptr, ptr %54, align 8
  %190 = load i64, ptr %61, align 8
  %191 = sub i64 0, %190
  %192 = trunc i64 %191 to i32
  call void (ptr, ptr, i32, ptr, i32, ptr, ...) @error_setg_errno_internal(ptr noundef %189, ptr noundef @.str.1, i32 noundef 2886, ptr noundef @__func__.blockdev_mirror_common, i32 noundef %192, ptr noundef @.str.244)
  store i32 1, ptr %59, align 4
  br label %218

193:                                              ; preds = %183
  %194 = load ptr, ptr %29, align 8
  %195 = load ptr, ptr %31, align 8
  %196 = load ptr, ptr %54, align 8
  %197 = call ptr @check_to_replace_node(ptr noundef %194, ptr noundef %195, ptr noundef %196)
  store ptr %197, ptr %60, align 8
  %198 = load ptr, ptr %60, align 8
  %199 = icmp ne ptr %198, null
  br i1 %199, label %201, label %200

200:                                              ; preds = %193
  store i32 1, ptr %59, align 4
  br label %218

201:                                              ; preds = %193
  %202 = load ptr, ptr %60, align 8
  %203 = call i64 @bdrv_getlength(ptr noundef %202)
  store i64 %203, ptr %62, align 8
  %204 = load i64, ptr %62, align 8
  %205 = icmp slt i64 %204, 0
  br i1 %205, label %206, label %211

206:                                              ; preds = %201
  %207 = load ptr, ptr %54, align 8
  %208 = load i64, ptr %62, align 8
  %209 = sub i64 0, %208
  %210 = trunc i64 %209 to i32
  call void (ptr, ptr, i32, ptr, i32, ptr, ...) @error_setg_errno_internal(ptr noundef %207, ptr noundef @.str.1, i32 noundef 2899, ptr noundef @__func__.blockdev_mirror_common, i32 noundef %210, ptr noundef @.str.245)
  store i32 1, ptr %59, align 4
  br label %218

211:                                              ; preds = %201
  %212 = load i64, ptr %61, align 8
  %213 = load i64, ptr %62, align 8
  %214 = icmp ne i64 %212, %213
  br i1 %214, label %215, label %217

215:                                              ; preds = %211
  %216 = load ptr, ptr %54, align 8
  call void (ptr, ptr, i32, ptr, ptr, ...) @error_setg_internal(ptr noundef %216, ptr noundef @.str.1, i32 noundef 2904, ptr noundef @__func__.blockdev_mirror_common, ptr noundef @.str.246)
  store i32 1, ptr %59, align 4
  br label %218

217:                                              ; preds = %211
  store i32 0, ptr %59, align 4
  br label %218

218:                                              ; preds = %217, %215, %206, %200, %188
  call void @llvm.lifetime.end.p0(i64 8, ptr %62) #16
  call void @llvm.lifetime.end.p0(i64 8, ptr %61) #16
  call void @llvm.lifetime.end.p0(i64 8, ptr %60) #16
  %219 = load i32, ptr %59, align 4
  switch i32 %219, label %241 [
    i32 0, label %220
  ]

220:                                              ; preds = %218
  br label %221

221:                                              ; preds = %220, %180
  %222 = load ptr, ptr %28, align 8
  %223 = load ptr, ptr %29, align 8
  %224 = load ptr, ptr %30, align 8
  %225 = load ptr, ptr %31, align 8
  %226 = load i32, ptr %56, align 4
  %227 = load i64, ptr %36, align 8
  %228 = load i32, ptr %38, align 4
  %229 = load i64, ptr %40, align 8
  %230 = load i32, ptr %32, align 4
  %231 = load i32, ptr %33, align 4
  %232 = load i8, ptr %34, align 1, !range !7, !noundef !8
  %233 = trunc i8 %232 to i1
  %234 = load i32, ptr %42, align 4
  %235 = load i32, ptr %44, align 4
  %236 = load i8, ptr %46, align 1, !range !7, !noundef !8
  %237 = trunc i8 %236 to i1
  %238 = load ptr, ptr %47, align 8
  %239 = load i32, ptr %49, align 4
  %240 = load ptr, ptr %54, align 8
  call void @mirror_start(ptr noundef %222, ptr noundef %223, ptr noundef %224, ptr noundef %225, i32 noundef %226, i64 noundef %227, i32 noundef %228, i64 noundef %229, i32 noundef %230, i32 noundef %231, i1 noundef zeroext %233, i32 noundef %234, i32 noundef %235, i1 noundef zeroext %237, ptr noundef %238, i32 noundef %239, ptr noundef %240)
  store i32 0, ptr %59, align 4
  br label %241

241:                                              ; preds = %221, %218, %157, %152, %146, %138
  call void @glib_autoptr_cleanup_GraphLockableMainloop(ptr noundef %57)
  call void @llvm.lifetime.end.p0(i64 8, ptr %57) #16
  call void @llvm.lifetime.end.p0(i64 4, ptr %56) #16
  call void @llvm.lifetime.end.p0(i64 8, ptr %55) #16
  %242 = load i32, ptr %59, align 4
  switch i32 %242, label %244 [
    i32 0, label %243
    i32 1, label %243
  ]

243:                                              ; preds = %241, %241
  ret void

244:                                              ; preds = %241
  unreachable
}