; Function Attrs: nounwind sspstrong uwtable
define internal fastcc void @blockdev_mirror_common(ptr noundef %0, ptr noundef nonnull %1, ptr noundef nonnull %2, ptr noundef %3, i32 noundef %4, i32 noundef range(i32 0, 3) %5, i1 noundef zeroext %6, i1 noundef zeroext %7, i64 noundef %8, i1 noundef zeroext %9, i32 noundef %10, i1 noundef zeroext %11, i64 noundef %12, i1 noundef zeroext %13, i32 noundef %14, i1 noundef zeroext %15, i32 noundef %16, i1 noundef zeroext %17, i1 noundef zeroext %18, ptr noundef %19, i1 noundef zeroext %20, i32 noundef %21, i1 noundef zeroext %22, i1 noundef zeroext %23, i1 noundef zeroext %24, i1 noundef zeroext %25, ptr noundef %26) unnamed_addr #0 {
  %28 = tail call zeroext i1 @qemu_in_main_thread() #14
  br i1 %28, label %30, label %29

29:                                               ; preds = %27
  tail call void @__assert_fail(ptr noundef nonnull @.str, ptr noundef nonnull @.str.1, i32 noundef 2819, ptr noundef nonnull @__PRETTY_FUNCTION__.blockdev_mirror_common) #15
  unreachable

30:                                               ; preds = %27
  tail call void @bdrv_graph_rdlock_main_loop() #14
  %spec.select = select i1 %7, i64 %8, i64 0
  %.073 = select i1 %13, i32 %14, i32 0
  %.074 = select i1 %15, i32 %16, i32 0
  %.070 = select i1 %9, i32 %10, i32 0
  %.071 = select i1 %11, i64 %12, i64 0
  %not. = xor i1 %17, true
  %.075 = or i1 %18, %not.
  %.072 = select i1 %20, i32 %21, i32 0
  %spec.select90 = select i1 %23, i32 0, i32 2
  %.067 = select i1 %22, i32 %spec.select90, i32 0
  %31 = or disjoint i32 %.067, 4
  %spec.select91 = select i1 %25, i32 %.067, i32 %31
  %.1 = select i1 %24, i32 %spec.select91, i32 %.067
  %.not = icmp ne i32 %.070, 0
  %32 = add i32 %.070, -67108865
  %or.cond = icmp ult i32 %32, -67108353
  %or.cond92 = and i1 %.not, %or.cond
  br i1 %or.cond92, label %33, label %34

33:                                               ; preds = %30
  tail call void (ptr, ptr, i32, ptr, ptr, ...) @error_setg_internal(ptr noundef %26, ptr noundef nonnull @.str.1, i32 noundef 2852, ptr noundef nonnull @__func__.blockdev_mirror_common, ptr noundef nonnull @.str.87, ptr noundef nonnull @.str.241, ptr noundef nonnull @.str.242) #14
  br label %glib_autoptr_cleanup_GraphLockableMainloop.exit

34:                                               ; preds = %30
  %35 = tail call range(i32 0, 28) i32 @llvm.ctpop.i32(i32 %.070)
  %.not84 = icmp samesign ult i32 %35, 2
  br i1 %.not84, label %37, label %36

36:                                               ; preds = %34
  tail call void (ptr, ptr, i32, ptr, ptr, ...) @error_setg_internal(ptr noundef %26, ptr noundef nonnull @.str.1, i32 noundef 2857, ptr noundef nonnull @__func__.blockdev_mirror_common, ptr noundef nonnull @.str.87, ptr noundef nonnull @.str.241, ptr noundef nonnull @.str.243) #14
  br label %glib_autoptr_cleanup_GraphLockableMainloop.exit

37:                                               ; preds = %34
  %38 = tail call zeroext i1 @bdrv_op_is_blocked(ptr noundef nonnull %1, i32 noundef 10, ptr noundef %26) #14
  br i1 %38, label %glib_autoptr_cleanup_GraphLockableMainloop.exit, label %39

39:                                               ; preds = %37
  %40 = tail call zeroext i1 @bdrv_op_is_blocked(ptr noundef nonnull %2, i32 noundef 11, ptr noundef %26) #14
  br i1 %40, label %glib_autoptr_cleanup_GraphLockableMainloop.exit, label %41

41:                                               ; preds = %39
  %42 = tail call ptr @bdrv_backing_chain_next(ptr noundef nonnull %1) #14
  %43 = icmp eq ptr %42, null
  %44 = icmp eq i32 %4, 0
  %or.cond3 = and i1 %44, %43
  %spec.store.select = select i1 %or.cond3, i32 1, i32 %4
  %.not85 = icmp eq ptr %3, null
  br i1 %.not85, label %45, label %48

45:                                               ; preds = %41
  %46 = tail call ptr @bdrv_skip_implicit_filters(ptr noundef nonnull %1) #14
  %.not86 = icmp eq ptr %46, %1
  %47 = getelementptr inbounds nuw i8, ptr %46, i64 16600
  br i1 %.not86, label %64, label %48

48:                                               ; preds = %41, %45
  %.068.ph = phi ptr [ %47, %45 ], [ %3, %41 ]
  %49 = tail call i64 @bdrv_getlength(ptr noundef nonnull %1) #14
  %50 = icmp slt i64 %49, 0
  br i1 %50, label %51, label %54

51:                                               ; preds = %48
  %52 = trunc i64 %49 to i32
  %53 = sub i32 0, %52
  tail call void (ptr, ptr, i32, ptr, i32, ptr, ...) @error_setg_errno_internal(ptr noundef %26, ptr noundef nonnull @.str.1, i32 noundef 2886, ptr noundef nonnull @__func__.blockdev_mirror_common, i32 noundef %53, ptr noundef nonnull @.str.244) #14
  br label %glib_autoptr_cleanup_GraphLockableMainloop.exit

54:                                               ; preds = %48
  %55 = tail call ptr @check_to_replace_node(ptr noundef nonnull %1, ptr noundef nonnull %.068.ph, ptr noundef %26) #14
  %.not88 = icmp eq ptr %55, null
  br i1 %.not88, label %glib_autoptr_cleanup_GraphLockableMainloop.exit, label %56

56:                                               ; preds = %54
  %57 = tail call i64 @bdrv_getlength(ptr noundef nonnull %55) #14
  %58 = icmp slt i64 %57, 0
  br i1 %58, label %59, label %62

59:                                               ; preds = %56
  %60 = trunc i64 %57 to i32
  %61 = sub i32 0, %60
  tail call void (ptr, ptr, i32, ptr, i32, ptr, ...) @error_setg_errno_internal(ptr noundef %26, ptr noundef nonnull @.str.1, i32 noundef 2899, ptr noundef nonnull @__func__.blockdev_mirror_common, i32 noundef %61, ptr noundef nonnull @.str.245) #14
  br label %glib_autoptr_cleanup_GraphLockableMainloop.exit

62:                                               ; preds = %56
  %.not89 = icmp eq i64 %49, %57
  br i1 %.not89, label %64, label %63

63:                                               ; preds = %62
  tail call void (ptr, ptr, i32, ptr, ptr, ...) @error_setg_internal(ptr noundef %26, ptr noundef nonnull @.str.1, i32 noundef 2904, ptr noundef nonnull @__func__.blockdev_mirror_common, ptr noundef nonnull @.str.246) #14
  br label %glib_autoptr_cleanup_GraphLockableMainloop.exit

64:                                               ; preds = %45, %62
  %.06897 = phi ptr [ %.068.ph, %62 ], [ null, %45 ]
  tail call void @mirror_start(ptr noundef %0, ptr noundef nonnull %1, ptr noundef nonnull %2, ptr noundef %.06897, i32 noundef %.1, i64 noundef %spec.select, i32 noundef %.070, i64 noundef %.071, i32 noundef %spec.store.select, i32 noundef %5, i1 noundef zeroext %6, i32 noundef %.073, i32 noundef %.074, i1 noundef zeroext %.075, ptr noundef %19, i32 noundef %.072, ptr noundef %26) #14
  br label %glib_autoptr_cleanup_GraphLockableMainloop.exit

glib_autoptr_cleanup_GraphLockableMainloop.exit:  ; preds = %51, %59, %63, %54, %39, %37, %64, %36, %33
  tail call void @bdrv_graph_rdunlock_main_loop() #14
  ret void
}